target datalayout = "e-m:e-p270:32:32-p271:32:32-p272:64:64-i64:64-i128:128-f80:128-n8:16:32:64-S128"
target triple = "x86_64-pc-linux-gnu"

%struct.expert_field = type { i32, i32 }

@ei_gsm_a_dtap_extraneous_data = internal global %struct.expert_field zeroinitializer, align 4
@hf_gsm_a_dtap_epc_ue_tl_a_ul_sdu_size = internal global i32 0, align 4
@hf_gsm_a_dtap_epc_ue_tl_a_drb = internal global i32 0, align 4
@hf_gsm_a_dtap_num_lb_entities = internal global i32 0, align 4
@ett_epc_ue_tl_a_lb_setup = internal global i32 0, align 4
@.str.964 = private unnamed_addr constant [13 x i8] c"LB entity %d\00", align 1
@.str.965 = private unnamed_addr constant [8 x i8] c"%d (%d)\00", align 1

; Function Attrs: null_pointer_is_valid sspstrong uwtable
define internal zeroext i16 @de_tp_epc_ue_tl_a_lb_setup(ptr noundef %0, ptr noundef %1, ptr noundef %2, i32 noundef %3, i32 noundef %4, ptr noundef %5, i32 noundef %6) #1 {
  %8 = alloca ptr, align 8
  %9 = alloca ptr, align 8
  %10 = alloca ptr, align 8
  %11 = alloca i32, align 4
  %12 = alloca i32, align 4
  %13 = alloca ptr, align 8
  %14 = alloca i32, align 4
  %15 = alloca i32, align 4
  %16 = alloca i32, align 4
  %17 = alloca i32, align 4
  %18 = alloca i8, align 1
  %19 = alloca ptr, align 8
  %20 = alloca ptr, align 8
  store ptr %0, ptr %8, align 8
  store ptr %1, ptr %9, align 8
  store ptr %2, ptr %10, align 8
  store i32 %3, ptr %11, align 4
  store i32 %4, ptr %12, align 4
  store ptr %5, ptr %13, align 8
  store i32 %6, ptr %14, align 4
  call void @llvm.lifetime.start.p0(i64 4, ptr %15) #7
  call void @llvm.lifetime.start.p0(i64 4, ptr %16) #7
  call void @llvm.lifetime.start.p0(i64 4, ptr %17) #7
  call void @llvm.lifetime.start.p0(i64 1, ptr %18) #7
  call void @llvm.lifetime.start.p0(i64 8, ptr %19) #7
  store ptr null, ptr %19, align 8
  call void @llvm.lifetime.start.p0(i64 8, ptr %20) #7
  %21 = load i32, ptr %11, align 4
  store i32 %21, ptr %15, align 4
  store i32 0, ptr %16, align 4
  %22 = load i32, ptr %12, align 4
  %23 = udiv i32 %22, 3
  store i32 %23, ptr %17, align 4
  %24 = load ptr, ptr %9, align 8
  %25 = load i32, ptr @hf_gsm_a_dtap_num_lb_entities, align 4
  %26 = load ptr, ptr %8, align 8
  %27 = load i32, ptr %15, align 4
  %28 = load i32, ptr %17, align 4
  %29 = call ptr @proto_tree_add_uint(ptr noundef %24, i32 noundef %25, ptr noundef %26, i32 noundef %27, i32 noundef 1, i32 noundef %28)
  store ptr %29, ptr %20, align 8
  %30 = load ptr, ptr %20, align 8
  %31 = load i32, ptr %12, align 4
  call void @proto_item_set_len(ptr noundef %30, i32 noundef %31)
  br label %32

32:                                               ; preds = %41, %7
  %33 = load i32, ptr %16, align 4
  %34 = load i32, ptr %17, align 4
  %35 = icmp ult i32 %33, %34
  br i1 %35, label %36, label %39

36:                                               ; preds = %32
  %37 = load i32, ptr %16, align 4
  %38 = icmp ult i32 %37, 8
  br label %39

39:                                               ; preds = %36, %32
  %40 = phi i1 [ false, %32 ], [ %38, %36 ]
  br i1 %40, label %41, label %78

41:                                               ; preds = %39
  %42 = load ptr, ptr %9, align 8
  %43 = load ptr, ptr %8, align 8
  %44 = load i32, ptr %15, align 4
  %45 = load i32, ptr @ett_epc_ue_tl_a_lb_setup, align 4
  %46 = load i32, ptr %16, align 4
  %47 = call ptr (ptr, ptr, i32, i32, i32, ptr, ptr, ...) @proto_tree_add_subtree_format(ptr noundef %42, ptr noundef %43, i32 noundef %44, i32 noundef 3, i32 noundef %45, ptr noundef null, ptr noundef @.str.964, i32 noundef %46)
  store ptr %47, ptr %19, align 8
  %48 = load ptr, ptr %19, align 8
  %49 = load i32, ptr @hf_gsm_a_dtap_epc_ue_tl_a_ul_sdu_size, align 4
  %50 = load ptr, ptr %8, align 8
  %51 = load i32, ptr %15, align 4
  %52 = shl i32 %51, 3
  %53 = call ptr @proto_tree_add_bits_item(ptr noundef %48, i32 noundef %49, ptr noundef %50, i32 noundef %52, i32 noundef 16, i32 noundef 0)
  %54 = load i32, ptr %15, align 4
  %55 = add i32 %54, 2
  store i32 %55, ptr %15, align 4
  %56 = load ptr, ptr %8, align 8
  %57 = load i32, ptr %15, align 4
  %58 = call zeroext i8 @tvb_get_uint8(ptr noundef %56, i32 noundef %57)
  %59 = zext i8 %58 to i32
  %60 = and i32 %59, 31
  %61 = trunc i32 %60 to i8
  store i8 %61, ptr %18, align 1
  %62 = load ptr, ptr %19, align 8
  %63 = load i32, ptr @hf_gsm_a_dtap_epc_ue_tl_a_drb, align 4
  %64 = load ptr, ptr %8, align 8
  %65 = load i32, ptr %15, align 4
  %66 = load i8, ptr %18, align 1
  %67 = zext i8 %66 to i32
  %68 = load i8, ptr %18, align 1
  %69 = zext i8 %68 to i32
  %70 = add i32 %69, 1
  %71 = load i8, ptr %18, align 1
  %72 = zext i8 %71 to i32
  %73 = call ptr (ptr, i32, ptr, i32, i32, i32, ptr, ...) @proto_tree_add_uint_format_value(ptr noundef %62, i32 noundef %63, ptr noundef %64, i32 noundef %65, i32 noundef 1, i32 noundef %67, ptr noundef @.str.965, i32 noundef %70, i32 noundef %72)
  %74 = load i32, ptr %15, align 4
  %75 = add i32 %74, 1
  store i32 %75, ptr %15, align 4
  %76 = load i32, ptr %16, align 4
  %77 = add i32 %76, 1
  store i32 %77, ptr %16, align 4
  br label %32, !llvm.loop !14

78:                                               ; preds = %39
  %79 = load i32, ptr %12, align 4
  %80 = load i32, ptr %15, align 4
  %81 = load i32, ptr %11, align 4
  %82 = sub i32 %80, %81
  %83 = icmp ugt i32 %79, %82
  br i1 %83, label %84, label %102

84:                                               ; preds = %78
  %85 = load ptr, ptr %9, align 8
  %86 = load ptr, ptr %10, align 8
  %87 = load ptr, ptr %8, align 8
  %88 = load i32, ptr %15, align 4
  %89 = load i32, ptr %12, align 4
  %90 = load i32, ptr %15, align 4
  %91 = load i32, ptr %11, align 4
  %92 = sub i32 %90, %91
  %93 = sub i32 %89, %92
  %94 = call ptr @proto_tree_add_expert(ptr noundef %85, ptr noundef %86, ptr noundef @ei_gsm_a_dtap_extraneous_data, ptr noundef %87, i32 noundef %88, i32 noundef %93)
  %95 = load i32, ptr %12, align 4
  %96 = load i32, ptr %15, align 4
  %97 = load i32, ptr %11, align 4
  %98 = sub i32 %96, %97
  %99 = sub i32 %95, %98
  %100 = load i32, ptr %15, align 4
  %101 = add i32 %100, %99
  store i32 %101, ptr %15, align 4
  br label %102

102:                                              ; preds = %84, %78
  %103 = load i32, ptr %12, align 4
  %104 = trunc i32 %103 to i16
  call void @llvm.lifetime.end.p0(i64 8, ptr %20) #7
  call void @llvm.lifetime.end.p0(i64 8, ptr %19) #7
  call void @llvm.lifetime.end.p0(i64 1, ptr %18) #7
  call void @llvm.lifetime.end.p0(i64 4, ptr %17) #7
  call void @llvm.lifetime.end.p0(i64 4, ptr %16) #7
  call void @llvm.lifetime.end.p0(i64 4, ptr %15) #7
  ret i16 %104
}