; Function Attrs: null_pointer_is_valid sspstrong uwtable
define internal noundef zeroext i16 @de_tp_epc_ue_tl_a_lb_setup(ptr noundef %0, ptr noundef %1, ptr noundef %2, i32 noundef %3, i32 noundef %4, ptr readnone captures(none) %5, i32 %6) #1 {
  %8 = udiv i32 %4, 3
  %9 = load i32, ptr @hf_gsm_a_dtap_num_lb_entities, align 4
  %10 = tail call ptr @proto_tree_add_uint(ptr noundef %1, i32 noundef %9, ptr noundef %0, i32 noundef %3, i32 noundef 1, i32 noundef %8)
  tail call void @proto_item_set_len(ptr noundef %10, i32 noundef %4)
  %invariant.umin = tail call i32 @llvm.umin.i32(i32 %8, i32 8)
  %.not = icmp ult i32 %4, 3
  br i1 %.not, label %._crit_edge, label %.lr.ph

.lr.ph:                                           ; preds = %7, %.lr.ph
  %.047 = phi i32 [ %23, %.lr.ph ], [ %3, %7 ]
  %.04346 = phi i32 [ %24, %.lr.ph ], [ 0, %7 ]
  %11 = load i32, ptr @ett_epc_ue_tl_a_lb_setup, align 4
  %12 = tail call ptr (ptr, ptr, i32, i32, i32, ptr, ptr, ...) @proto_tree_add_subtree_format(ptr noundef %1, ptr noundef %0, i32 noundef %.047, i32 noundef 3, i32 noundef %11, ptr noundef null, ptr noundef nonnull @.str.964, i32 noundef %.04346)
  %13 = load i32, ptr @hf_gsm_a_dtap_epc_ue_tl_a_ul_sdu_size, align 4
  %14 = shl i32 %.047, 3
  %15 = tail call ptr @proto_tree_add_bits_item(ptr noundef %12, i32 noundef %13, ptr noundef %0, i32 noundef %14, i32 noundef 16, i32 noundef 0)
  %16 = add i32 %.047, 2
  %17 = tail call zeroext i8 @tvb_get_uint8(ptr noundef %0, i32 noundef %16)
  %18 = and i8 %17, 31
  %19 = load i32, ptr @hf_gsm_a_dtap_epc_ue_tl_a_drb, align 4
  %20 = zext nneg i8 %18 to i32
  %21 = add nuw nsw i32 %20, 1
  %22 = tail call ptr (ptr, i32, ptr, i32, i32, i32, ptr, ...) @proto_tree_add_uint_format_value(ptr noundef %12, i32 noundef %19, ptr noundef %0, i32 noundef %16, i32 noundef 1, i32 noundef %20, ptr noundef nonnull @.str.965, i32 noundef %21, i32 noundef %20)
  %23 = add i32 %.047, 3
  %24 = add nuw nsw i32 %.04346, 1
  %exitcond.not = icmp eq i32 %24, %invariant.umin
  br i1 %exitcond.not, label %._crit_edge, label %.lr.ph, !llvm.loop !12

._crit_edge:                                      ; preds = %.lr.ph, %7
  %.0.lcssa = phi i32 [ %3, %7 ], [ %23, %.lr.ph ]
  %25 = sub i32 %.0.lcssa, %3
  %26 = icmp ugt i32 %4, %25
  br i1 %26, label %27, label %30

27:                                               ; preds = %._crit_edge
  %28 = sub nuw i32 %4, %25
  %29 = tail call ptr @proto_tree_add_expert(ptr noundef %1, ptr noundef %2, ptr noundef nonnull @ei_gsm_a_dtap_extraneous_data, ptr noundef %0, i32 noundef %.0.lcssa, i32 noundef %28)
  br label %30

30:                                               ; preds = %27, %._crit_edge
  %31 = trunc i32 %4 to i16
  ret i16 %31
}